; Function Attrs: mustprogress nofree norecurse nosync nounwind willreturn memory(write, argmem: readwrite, inaccessiblemem: none) uwtable
define internal void @_ZN6v8impl12_GLOBAL__N_121TrackedStringResource8FinalizeEv(ptr nocapture noundef nonnull align 8 dereferenceable(64) %this) unnamed_addr #5 align 2 {
entry:
  %prev_.i = getelementptr inbounds i8, ptr %this, i64 56
  %0 = load ptr, ptr %prev_.i, align 8
  %cmp.not.i = icmp eq ptr %0, null
  %next_4.phi.trans.insert.i = getelementptr inbounds i8, ptr %this, i64 48
  %.pre.i = load ptr, ptr %next_4.phi.trans.insert.i, align 8
  br i1 %cmp.not.i, label %if.end.i, label %if.then.i

if.then.i:                                        ; preds = %entry
  %next_3.i = getelementptr inbounds i8, ptr %0, i64 8
  store ptr %.pre.i, ptr %next_3.i, align 8
  br label %if.end.i

if.end.i:                                         ; preds = %if.then.i, %entry
  %cmp5.not.i = icmp eq ptr %.pre.i, null
  br i1 %cmp5.not.i, label %_ZN6v8impl10RefTracker6UnlinkEv.exit, label %if.then6.i

if.then6.i:                                       ; preds = %if.end.i
  %1 = load ptr, ptr %prev_.i, align 8
  %prev_9.i = getelementptr inbounds i8, ptr %.pre.i, i64 16
  store ptr %1, ptr %prev_9.i, align 8
  br label %_ZN6v8impl10RefTracker6UnlinkEv.exit

_ZN6v8impl10RefTracker6UnlinkEv.exit:             ; preds = %if.end.i, %if.then6.i
  tail call void @llvm.memset.p0.i64(ptr noundef nonnull align 8 dereferenceable(16) %next_4.phi.trans.insert.i, i8 0, i64 16, i1 false)
  %env_ = getelementptr inbounds i8, ptr %this, i64 8
  store ptr null, ptr %env_, align 8
  ret void
}